target datalayout = "e-m:e-p270:32:32-p271:32:32-p272:64:64-i64:64-i128:128-f80:128-n8:16:32:64-S128"
target triple = "x86_64-pc-linux-gnu"

%struct.expert_field = type { i32, i32 }
%struct._e_guid_t = type { i32, i16, i16, [8 x i8] }
%struct._packet_info = type { ptr, ptr, i32, i32, %struct.nstime_t, %struct.nstime_t, %struct.nstime_t, i32, ptr, ptr, ptr, ptr, %struct._address, %struct._address, %struct._address, %struct._address, %struct._address, %struct._address, i32, ptr, i32, %struct.anon, i32, i32, i32, i32, ptr, i32, ptr, ptr, i16, i16, i32, i32, i16, i32, i32, ptr, ptr, ptr, i8, i8, i16, i16, i16, i32, i16, i16, ptr, ptr, ptr, ptr, ptr, i32 }
%struct.nstime_t = type { i64, i32 }
%struct._address = type { i32, i32, ptr, ptr }
%struct.anon = type { i8, [3 x i8] }
%struct.pnio_ar_s = type { %struct._e_guid_t, i16, i16, [6 x i8], i16, [6 x i8], i16, i16 }
%struct._GList = type { ptr, ptr, ptr }

@hf_pn_io_target_ar_uuid = internal global i32 0, align 4
@hf_pn_io_record_data_length = internal global i32 0, align 4
@ei_pn_io_block_version = internal global %struct.expert_field zeroinitializer, align 4
@.str.1317 = private unnamed_addr constant [41 x i8] c"Block version %u.%u not implemented yet!\00", align 1
@.str.1325 = private unnamed_addr constant [9 x i8] c", Len:%u\00", align 1
@.str.1326 = private unnamed_addr constant [11 x i8] c", %u bytes\00", align 1
@pnio_ars = internal global ptr null, align 8

; Function Attrs: nounwind uwtable
define internal ptr @pnio_ar_find_by_aruuid(ptr noundef %0, ptr noundef %1) #0 {
  %3 = alloca ptr, align 8
  %4 = alloca ptr, align 8
  %5 = alloca ptr, align 8
  %6 = alloca ptr, align 8
  %7 = alloca ptr, align 8
  store ptr %0, ptr %4, align 8
  store ptr %1, ptr %5, align 8
  %8 = load ptr, ptr @pnio_ars, align 8
  store ptr %8, ptr %6, align 8
  br label %9

9:                                                ; preds = %32, %2
  %10 = load ptr, ptr %6, align 8
  %11 = icmp ne ptr %10, null
  br i1 %11, label %12, label %34

12:                                               ; preds = %9
  %13 = load ptr, ptr %6, align 8
  %14 = getelementptr inbounds %struct._GList, ptr %13, i32 0, i32 0
  %15 = load ptr, ptr %14, align 8
  store ptr %15, ptr %7, align 8
  %16 = load ptr, ptr %7, align 8
  %17 = getelementptr inbounds %struct.pnio_ar_s, ptr %16, i32 0, i32 0
  %18 = load ptr, ptr %5, align 8
  %19 = call i32 @memcmp(ptr noundef %17, ptr noundef %18, i64 noundef 16) #7
  %20 = icmp eq i32 %19, 0
  br i1 %20, label %21, label %23

21:                                               ; preds = %12
  %22 = load ptr, ptr %7, align 8
  store ptr %22, ptr %3, align 8
  br label %35

23:                                               ; preds = %12
  br label %24

24:                                               ; preds = %23
  %25 = load ptr, ptr %6, align 8
  %26 = icmp ne ptr %25, null
  br i1 %26, label %27, label %31

27:                                               ; preds = %24
  %28 = load ptr, ptr %6, align 8
  %29 = getelementptr inbounds %struct._GList, ptr %28, i32 0, i32 1
  %30 = load ptr, ptr %29, align 8
  br label %32

31:                                               ; preds = %24
  br label %32

32:                                               ; preds = %31, %27
  %33 = phi ptr [ %30, %27 ], [ null, %31 ]
  store ptr %33, ptr %6, align 8
  br label %9, !llvm.loop !88

34:                                               ; preds = %9
  store ptr null, ptr %3, align 8
  br label %35

35:                                               ; preds = %34, %21
  %36 = load ptr, ptr %3, align 8
  ret ptr %36
}

; Function Attrs: nounwind uwtable
define internal i32 @dissect_IODWriteReqHeader_block(ptr noundef %0, i32 noundef %1, ptr noundef %2, ptr noundef %3, ptr noundef %4, ptr noundef %5, i8 noundef zeroext %6, i8 noundef zeroext %7, ptr noundef %8, ptr noundef %9, ptr noundef %10) #0 {
  %12 = alloca i32, align 4
  %13 = alloca ptr, align 8
  %14 = alloca i32, align 4
  %15 = alloca ptr, align 8
  %16 = alloca ptr, align 8
  %17 = alloca ptr, align 8
  %18 = alloca ptr, align 8
  %19 = alloca i8, align 1
  %20 = alloca i8, align 1
  %21 = alloca ptr, align 8
  %22 = alloca ptr, align 8
  %23 = alloca ptr, align 8
  %24 = alloca %struct._e_guid_t, align 4
  %25 = alloca %struct._e_guid_t, align 4
  store ptr %0, ptr %13, align 8
  store i32 %1, ptr %14, align 4
  store ptr %2, ptr %15, align 8
  store ptr %3, ptr %16, align 8
  store ptr %4, ptr %17, align 8
  store ptr %5, ptr %18, align 8
  store i8 %6, ptr %19, align 1
  store i8 %7, ptr %20, align 1
  store ptr %8, ptr %21, align 8
  store ptr %9, ptr %22, align 8
  store ptr %10, ptr %23, align 8
  %26 = load i8, ptr %19, align 1
  %27 = zext i8 %26 to i32
  %28 = icmp ne i32 %27, 1
  br i1 %28, label %33, label %29

29:                                               ; preds = %11
  %30 = load i8, ptr %20, align 1
  %31 = zext i8 %30 to i32
  %32 = icmp ne i32 %31, 0
  br i1 %32, label %33, label %42

33:                                               ; preds = %29, %11
  %34 = load ptr, ptr %15, align 8
  %35 = load ptr, ptr %17, align 8
  %36 = load i8, ptr %19, align 1
  %37 = zext i8 %36 to i32
  %38 = load i8, ptr %20, align 1
  %39 = zext i8 %38 to i32
  %40 = call ptr (ptr, ptr, ptr, ptr, ...) @expert_add_info_format(ptr noundef %34, ptr noundef %35, ptr noundef @ei_pn_io_block_version, ptr noundef @.str.1317, i32 noundef %37, i32 noundef %39)
  %41 = load i32, ptr %14, align 4
  store i32 %41, ptr %12, align 4
  br label %92

42:                                               ; preds = %29
  %43 = load ptr, ptr %13, align 8
  %44 = load i32, ptr %14, align 4
  %45 = load ptr, ptr %15, align 8
  %46 = load ptr, ptr %16, align 8
  %47 = load ptr, ptr %17, align 8
  %48 = load ptr, ptr %18, align 8
  %49 = load ptr, ptr %21, align 8
  %50 = call i32 @dissect_ReadWrite_header(ptr noundef %43, i32 noundef %44, ptr noundef %45, ptr noundef %46, ptr noundef %47, ptr noundef %48, ptr noundef %49, ptr noundef %24)
  store i32 %50, ptr %14, align 4
  %51 = load ptr, ptr %15, align 8
  %52 = call ptr @pnio_ar_find_by_aruuid(ptr noundef %51, ptr noundef %24)
  %53 = load ptr, ptr %23, align 8
  store ptr %52, ptr %53, align 8
  %54 = load ptr, ptr %13, align 8
  %55 = load i32, ptr %14, align 4
  %56 = load ptr, ptr %15, align 8
  %57 = load ptr, ptr %16, align 8
  %58 = load ptr, ptr %18, align 8
  %59 = load i32, ptr @hf_pn_io_record_data_length, align 4
  %60 = load ptr, ptr %22, align 8
  %61 = call i32 @dissect_dcerpc_uint32(ptr noundef %54, i32 noundef %55, ptr noundef %56, ptr noundef %57, ptr noundef %58, i32 noundef %59, ptr noundef %60)
  store i32 %61, ptr %14, align 4
  call void @llvm.memset.p0.i64(ptr align 4 %25, i8 0, i64 16, i1 false)
  %62 = call i32 @memcmp(ptr noundef %24, ptr noundef %25, i64 noundef 16) #7
  %63 = icmp eq i32 %62, 0
  br i1 %63, label %64, label %72

64:                                               ; preds = %42
  %65 = load ptr, ptr %13, align 8
  %66 = load i32, ptr %14, align 4
  %67 = load ptr, ptr %15, align 8
  %68 = load ptr, ptr %16, align 8
  %69 = load ptr, ptr %18, align 8
  %70 = load i32, ptr @hf_pn_io_target_ar_uuid, align 4
  %71 = call i32 @dissect_dcerpc_uuid_t(ptr noundef %65, i32 noundef %66, ptr noundef %67, ptr noundef %68, ptr noundef %69, i32 noundef %70, ptr noundef %24)
  store i32 %71, ptr %14, align 4
  br label %72

72:                                               ; preds = %64, %42
  %73 = load ptr, ptr %13, align 8
  %74 = load i32, ptr %14, align 4
  %75 = load ptr, ptr %15, align 8
  %76 = load ptr, ptr %16, align 8
  %77 = call i32 @dissect_pn_padding(ptr noundef %73, i32 noundef %74, ptr noundef %75, ptr noundef %76, i32 noundef 24)
  store i32 %77, ptr %14, align 4
  %78 = load ptr, ptr %17, align 8
  %79 = load ptr, ptr %22, align 8
  %80 = load i32, ptr %79, align 4
  call void (ptr, ptr, ...) @proto_item_append_text(ptr noundef %78, ptr noundef @.str.1325, i32 noundef %80)
  %81 = load ptr, ptr %22, align 8
  %82 = load i32, ptr %81, align 4
  %83 = icmp ne i32 %82, 0
  br i1 %83, label %84, label %90

84:                                               ; preds = %72
  %85 = load ptr, ptr %15, align 8
  %86 = getelementptr inbounds %struct._packet_info, ptr %85, i32 0, i32 1
  %87 = load ptr, ptr %86, align 8
  %88 = load ptr, ptr %22, align 8
  %89 = load i32, ptr %88, align 4
  call void (ptr, i32, ptr, ...) @col_append_fstr(ptr noundef %87, i32 noundef 25, ptr noundef @.str.1326, i32 noundef %89)
  br label %90

90:                                               ; preds = %84, %72
  %91 = load i32, ptr %14, align 4
  store i32 %91, ptr %12, align 4
  br label %92

92:                                               ; preds = %90, %33
  %93 = load i32, ptr %12, align 4
  ret i32 %93
}