; Function Attrs: nounwind uwtable
define internal fastcc void @dissect_IODWriteReqHeader_block(ptr noundef %0, i32 noundef %1, ptr noundef %2, ptr noundef %3, ptr noundef %4, ptr noundef %5, i8 noundef zeroext %6, i8 noundef zeroext %7, ptr noundef nonnull %8, ptr noundef nonnull %9, ptr noundef nonnull writeonly captures(none) %10) unnamed_addr #0 {
  %12 = alloca %struct._e_guid_t, align 4
  %13 = alloca %struct._e_guid_t, align 4
  %14 = icmp ne i8 %6, 1
  %15 = icmp ne i8 %7, 0
  %or.cond = or i1 %14, %15
  br i1 %or.cond, label %16, label %20

16:                                               ; preds = %11
  %17 = zext i8 %7 to i32
  %18 = zext i8 %6 to i32
  %19 = tail call ptr (ptr, ptr, ptr, ptr, ...) @expert_add_info_format(ptr noundef %2, ptr noundef %4, ptr noundef nonnull @ei_pn_io_block_version, ptr noundef nonnull @.str.1317, i32 noundef %18, i32 noundef %17) #11
  br label %39

20:                                               ; preds = %11
  %21 = call fastcc i32 @dissect_ReadWrite_header(ptr noundef %0, i32 noundef %1, ptr noundef %2, ptr noundef %3, ptr noundef %4, ptr noundef %5, ptr noundef %8, ptr noundef %12)
  %.081.i = load ptr, ptr @pnio_ars, align 8
  %.not2.i = icmp eq ptr %.081.i, null
  br i1 %.not2.i, label %pnio_ar_find_by_aruuid.exit, label %.lr.ph.i

22:                                               ; preds = %.lr.ph.i
  %23 = getelementptr inbounds nuw i8, ptr %.083.i, i64 8
  %.08.i = load ptr, ptr %23, align 8
  %.not.i = icmp eq ptr %.08.i, null
  br i1 %.not.i, label %pnio_ar_find_by_aruuid.exit, label %.lr.ph.i, !llvm.loop !15

.lr.ph.i:                                         ; preds = %20, %22
  %.083.i = phi ptr [ %.08.i, %22 ], [ %.081.i, %20 ]
  %24 = load ptr, ptr %.083.i, align 8
  %bcmp.i = call i32 @bcmp(ptr noundef nonnull dereferenceable(16) %24, ptr noundef nonnull readonly dereferenceable(16) %12, i64 16)
  %25 = icmp eq i32 %bcmp.i, 0
  br i1 %25, label %pnio_ar_find_by_aruuid.exit, label %22

pnio_ar_find_by_aruuid.exit:                      ; preds = %22, %.lr.ph.i, %20
  %.0.i = phi ptr [ null, %20 ], [ %24, %.lr.ph.i ], [ null, %22 ]
  store ptr %.0.i, ptr %10, align 8
  %26 = load i32, ptr @hf_pn_io_record_data_length, align 4
  %27 = call i32 @dissect_dcerpc_uint32(ptr noundef %0, i32 noundef %21, ptr noundef %2, ptr noundef %3, ptr noundef %5, i32 noundef %26, ptr noundef nonnull %9) #11
  call void @llvm.memset.p0.i64(ptr noundef nonnull align 4 dereferenceable(16) %13, i8 0, i64 16, i1 false)
  %bcmp = call i32 @bcmp(ptr noundef nonnull dereferenceable(16) %12, ptr noundef nonnull dereferenceable(16) %13, i64 16)
  %28 = icmp eq i32 %bcmp, 0
  br i1 %28, label %29, label %32

29:                                               ; preds = %pnio_ar_find_by_aruuid.exit
  %30 = load i32, ptr @hf_pn_io_target_ar_uuid, align 4
  %31 = call i32 @dissect_dcerpc_uuid_t(ptr noundef %0, i32 noundef %27, ptr noundef %2, ptr noundef %3, ptr noundef %5, i32 noundef %30, ptr noundef nonnull %12) #11
  br label %32

32:                                               ; preds = %29, %pnio_ar_find_by_aruuid.exit
  %.039 = phi i32 [ %31, %29 ], [ %27, %pnio_ar_find_by_aruuid.exit ]
  %33 = call i32 @dissect_pn_padding(ptr noundef %0, i32 noundef %.039, ptr noundef %2, ptr noundef %3, i32 noundef 24) #11
  %34 = load i32, ptr %9, align 4
  call void (ptr, ptr, ...) @proto_item_append_text(ptr noundef %4, ptr noundef nonnull @.str.1325, i32 noundef %34) #11
  %35 = load i32, ptr %9, align 4
  %.not = icmp eq i32 %35, 0
  br i1 %.not, label %39, label %36

36:                                               ; preds = %32
  %37 = getelementptr inbounds nuw i8, ptr %2, i64 8
  %38 = load ptr, ptr %37, align 8
  call void (ptr, i32, ptr, ...) @col_append_fstr(ptr noundef %38, i32 noundef 25, ptr noundef nonnull @.str.1326, i32 noundef %35) #11
  br label %39

39:                                               ; preds = %32, %36, %16
  ret void
}